; Function Attrs: inlinehint nounwind uwtable
define internal fastcc zeroext i1 @lxb_html_tree_insertion_mode_in_body_hr(ptr noundef %0, ptr noundef %1) unnamed_addr #3 {
  %3 = tail call ptr @lxb_html_tree_element_in_scope(ptr noundef %0, i64 noundef 145, i64 noundef 2, i32 noundef 32) #6
  %.not = icmp eq ptr %3, null
  br i1 %.not, label %5, label %4

4:                                                ; preds = %2
  tail call void @lxb_html_tree_close_p_element(ptr noundef %0, ptr noundef %1) #6
  br label %5

5:                                                ; preds = %4, %2
  %6 = tail call ptr @lxb_html_tree_insert_foreign_element(ptr noundef %0, ptr noundef %1, i64 noundef 2) #6
  %7 = icmp eq ptr %6, null
  br i1 %7, label %8, label %11

8:                                                ; preds = %5
  %9 = getelementptr inbounds nuw i8, ptr %0, i64 112
  store i32 2, ptr %9, align 8, !tbaa !22
  %10 = tail call zeroext i1 @lxb_html_tree_process_abort(ptr noundef %0) #6
  br label %22

11:                                               ; preds = %5
  %12 = getelementptr i8, ptr %0, i64 32
  %.val = load ptr, ptr %12, align 8, !tbaa !33
  %13 = tail call ptr @lexbor_array_pop(ptr noundef %.val) #6
  %14 = getelementptr inbounds nuw i8, ptr %1, i64 88
  %15 = load i32, ptr %14, align 8, !tbaa !32
  %16 = and i32 %15, 2
  %17 = icmp eq i32 %16, 0
  br i1 %17, label %lxb_html_tree_acknowledge_token_self_closing.exit, label %18

18:                                               ; preds = %11
  %19 = getelementptr inbounds nuw i8, ptr %1, i64 80
  %20 = load i64, ptr %19, align 8, !tbaa !18
  switch i64 %20, label %lxb_html_tag_is_void.exit.i [
    i64 18, label %lxb_html_tree_acknowledge_token_self_closing.exit
    i64 23, label %lxb_html_tree_acknowledge_token_self_closing.exit
    i64 32, label %lxb_html_tree_acknowledge_token_self_closing.exit
    i64 40, label %lxb_html_tree_acknowledge_token_self_closing.exit
    i64 55, label %lxb_html_tree_acknowledge_token_self_closing.exit
    i64 100, label %lxb_html_tree_acknowledge_token_self_closing.exit
    i64 105, label %lxb_html_tree_acknowledge_token_self_closing.exit
    i64 106, label %lxb_html_tree_acknowledge_token_self_closing.exit
    i64 115, label %lxb_html_tree_acknowledge_token_self_closing.exit
    i64 124, label %lxb_html_tree_acknowledge_token_self_closing.exit
    i64 166, label %lxb_html_tree_acknowledge_token_self_closing.exit
    i64 188, label %lxb_html_tree_acknowledge_token_self_closing.exit
    i64 194, label %lxb_html_tree_acknowledge_token_self_closing.exit
  ]

lxb_html_tag_is_void.exit.i:                      ; preds = %18
  tail call void @lxb_html_tree_parse_error(ptr noundef nonnull %0, ptr noundef nonnull %1, i32 noundef 11) #6
  br label %lxb_html_tree_acknowledge_token_self_closing.exit

lxb_html_tree_acknowledge_token_self_closing.exit: ; preds = %11, %18, %18, %18, %18, %18, %18, %18, %18, %18, %18, %18, %18, %18, %lxb_html_tag_is_void.exit.i
  %21 = getelementptr inbounds nuw i8, ptr %0, i64 81
  store i8 0, ptr %21, align 1, !tbaa !25
  br label %22

22:                                               ; preds = %lxb_html_tree_acknowledge_token_self_closing.exit, %8
  %.0 = phi i1 [ %10, %8 ], [ true, %lxb_html_tree_acknowledge_token_self_closing.exit ]
  ret i1 %.0
}